target datalayout = "e-m:e-p270:32:32-p271:32:32-p272:64:64-i64:64-i128:128-f80:128-n8:16:32:64-S128"
target triple = "x86_64-pc-linux-gnu"

%struct.SysRandom_ = type { i32, i32, i32 }

@stream = internal global %struct.SysRandom_ { i32 -1, i32 0, i32 0 }, align 4

; Function Attrs: nounwind ssp uwtable
define internal i32 @randombytes_sysrandom_close() #0 {
  %1 = alloca i32, align 4
  call void @llvm.lifetime.start.p0(i64 4, ptr %1) #6
  store i32 -1, ptr %1, align 4
  %2 = load i32, ptr @stream, align 4
  %3 = icmp ne i32 %2, -1
  br i1 %3, label %4, label %9

4:                                                ; preds = %0
  %5 = load i32, ptr @stream, align 4
  %6 = call i32 @close(i32 noundef %5)
  %7 = icmp eq i32 %6, 0
  br i1 %7, label %8, label %9

8:                                                ; preds = %4
  store i32 -1, ptr @stream, align 4
  store i32 0, ptr getelementptr inbounds nuw (%struct.SysRandom_, ptr @stream, i32 0, i32 1), align 4
  store i32 0, ptr %1, align 4
  br label %9

9:                                                ; preds = %8, %4, %0
  %10 = load i32, ptr getelementptr inbounds nuw (%struct.SysRandom_, ptr @stream, i32 0, i32 2), align 4
  %11 = icmp ne i32 %10, 0
  br i1 %11, label %12, label %13

12:                                               ; preds = %9
  store i32 0, ptr %1, align 4
  br label %13

13:                                               ; preds = %12, %9
  %14 = load i32, ptr %1, align 4
  call void @llvm.lifetime.end.p0(i64 4, ptr %1) #6
  ret i32 %14
}