; Function Attrs: nounwind ssp uwtable
define internal range(i32 -1, 1) i32 @randombytes_sysrandom_close() #1 {
  %1 = load i32, ptr @stream.0, align 4
  %.not = icmp eq i32 %1, -1
  br i1 %.not, label %6, label %2

2:                                                ; preds = %0
  %3 = tail call i32 @close(i32 noundef %1) #9
  %4 = icmp eq i32 %3, 0
  br i1 %4, label %5, label %6

5:                                                ; preds = %2
  store i32 -1, ptr @stream.0, align 4
  store i1 false, ptr @stream.1, align 4
  br label %6

6:                                                ; preds = %5, %2, %0
  %.0 = phi i32 [ 0, %5 ], [ -1, %2 ], [ -1, %0 ]
  %.b = load i1, ptr @stream.2, align 4
  %spec.select = select i1 %.b, i32 0, i32 %.0
  ret i32 %spec.select
}